target datalayout = "e-m:e-p270:32:32-p271:32:32-p272:64:64-i64:64-i128:128-f80:128-n8:16:32:64-S128"
target triple = "x86_64-pc-linux-gnu"

; Function Attrs: nounwind uwtable
define i32 @UI_UTIL_read_pw(ptr noundef %0, ptr noundef %1, i32 noundef %2, ptr noundef %3, i32 noundef %4) #0 {
  %6 = alloca i32, align 4
  %7 = alloca ptr, align 8
  %8 = alloca ptr, align 8
  %9 = alloca i32, align 4
  %10 = alloca ptr, align 8
  %11 = alloca i32, align 4
  %12 = alloca i32, align 4
  %13 = alloca ptr, align 8
  %14 = alloca i32, align 4
  store ptr %0, ptr %7, align 8, !tbaa !3
  store ptr %1, ptr %8, align 8, !tbaa !3
  store i32 %2, ptr %9, align 4, !tbaa !8
  store ptr %3, ptr %10, align 8, !tbaa !3
  store i32 %4, ptr %11, align 4, !tbaa !8
  call void @llvm.lifetime.start.p0(i64 4, ptr %12) #3
  store i32 -2, ptr %12, align 4, !tbaa !8
  call void @llvm.lifetime.start.p0(i64 8, ptr %13) #3
  %15 = load i32, ptr %9, align 4, !tbaa !8
  %16 = icmp slt i32 %15, 1
  br i1 %16, label %17, label %18

17:                                               ; preds = %5
  store i32 -1, ptr %6, align 4
  store i32 1, ptr %14, align 4
  br label %52

18:                                               ; preds = %5
  %19 = call ptr @UI_new()
  store ptr %19, ptr %13, align 8, !tbaa !10
  %20 = load ptr, ptr %13, align 8, !tbaa !10
  %21 = icmp ne ptr %20, null
  br i1 %21, label %22, label %50

22:                                               ; preds = %18
  %23 = load ptr, ptr %13, align 8, !tbaa !10
  %24 = load ptr, ptr %10, align 8, !tbaa !3
  %25 = load ptr, ptr %7, align 8, !tbaa !3
  %26 = load i32, ptr %9, align 4, !tbaa !8
  %27 = sub nsw i32 %26, 1
  %28 = call i32 @UI_add_input_string(ptr noundef %23, ptr noundef %24, i32 noundef 0, ptr noundef %25, i32 noundef 0, i32 noundef %27)
  store i32 %28, ptr %12, align 4, !tbaa !8
  %29 = load i32, ptr %12, align 4, !tbaa !8
  %30 = icmp sge i32 %29, 0
  br i1 %30, label %31, label %42

31:                                               ; preds = %22
  %32 = load i32, ptr %11, align 4, !tbaa !8
  %33 = icmp ne i32 %32, 0
  br i1 %33, label %34, label %42

34:                                               ; preds = %31
  %35 = load ptr, ptr %13, align 8, !tbaa !10
  %36 = load ptr, ptr %10, align 8, !tbaa !3
  %37 = load ptr, ptr %8, align 8, !tbaa !3
  %38 = load i32, ptr %9, align 4, !tbaa !8
  %39 = sub nsw i32 %38, 1
  %40 = load ptr, ptr %7, align 8, !tbaa !3
  %41 = call i32 @UI_add_verify_string(ptr noundef %35, ptr noundef %36, i32 noundef 0, ptr noundef %37, i32 noundef 0, i32 noundef %39, ptr noundef %40)
  store i32 %41, ptr %12, align 4, !tbaa !8
  br label %42

42:                                               ; preds = %34, %31, %22
  %43 = load i32, ptr %12, align 4, !tbaa !8
  %44 = icmp sge i32 %43, 0
  br i1 %44, label %45, label %48

45:                                               ; preds = %42
  %46 = load ptr, ptr %13, align 8, !tbaa !10
  %47 = call i32 @UI_process(ptr noundef %46)
  store i32 %47, ptr %12, align 4, !tbaa !8
  br label %48

48:                                               ; preds = %45, %42
  %49 = load ptr, ptr %13, align 8, !tbaa !10
  call void @UI_free(ptr noundef %49)
  br label %50

50:                                               ; preds = %48, %18
  %51 = load i32, ptr %12, align 4, !tbaa !8
  store i32 %51, ptr %6, align 4
  store i32 1, ptr %14, align 4
  br label %52

52:                                               ; preds = %50, %17
  call void @llvm.lifetime.end.p0(i64 8, ptr %13) #3
  call void @llvm.lifetime.end.p0(i64 4, ptr %12) #3
  %53 = load i32, ptr %6, align 4
  ret i32 %53
}

; Function Attrs: nounwind uwtable
define i32 @UI_UTIL_read_pw_string(ptr noundef %0, i32 noundef %1, ptr noundef %2, i32 noundef %3) #0 {
  %5 = alloca ptr, align 8
  %6 = alloca i32, align 4
  %7 = alloca ptr, align 8
  %8 = alloca i32, align 4
  %9 = alloca [8192 x i8], align 16
  %10 = alloca i32, align 4
  store ptr %0, ptr %5, align 8, !tbaa !3
  store i32 %1, ptr %6, align 4, !tbaa !8
  store ptr %2, ptr %7, align 8, !tbaa !3
  store i32 %3, ptr %8, align 4, !tbaa !8
  call void @llvm.lifetime.start.p0(i64 8192, ptr %9) #3
  call void @llvm.lifetime.start.p0(i64 4, ptr %10) #3
  %11 = load ptr, ptr %5, align 8, !tbaa !3
  %12 = getelementptr inbounds [8192 x i8], ptr %9, i64 0, i64 0
  %13 = load i32, ptr %6, align 4, !tbaa !8
  %14 = icmp sgt i32 %13, 8192
  br i1 %14, label %15, label %16

15:                                               ; preds = %4
  br label %18

16:                                               ; preds = %4
  %17 = load i32, ptr %6, align 4, !tbaa !8
  br label %18

18:                                               ; preds = %16, %15
  %19 = phi i32 [ 8192, %15 ], [ %17, %16 ]
  %20 = load ptr, ptr %7, align 8, !tbaa !3
  %21 = load i32, ptr %8, align 4, !tbaa !8
  %22 = call i32 @UI_UTIL_read_pw(ptr noundef %11, ptr noundef %12, i32 noundef %19, ptr noundef %20, i32 noundef %21)
  store i32 %22, ptr %10, align 4, !tbaa !8
  %23 = getelementptr inbounds [8192 x i8], ptr %9, i64 0, i64 0
  call void @OPENSSL_cleanse(ptr noundef %23, i64 noundef 8192)
  %24 = load i32, ptr %10, align 4, !tbaa !8
  call void @llvm.lifetime.end.p0(i64 4, ptr %10) #3
  call void @llvm.lifetime.end.p0(i64 8192, ptr %9) #3
  ret i32 %24
}