; Function Attrs: nounwind uwtable
define i32 @UI_UTIL_read_pw_string(ptr noundef %0, i32 noundef %1, ptr noundef %2, i32 noundef %3) local_unnamed_addr #0 {
  %5 = alloca [8192 x i8], align 16
  call void @llvm.lifetime.start.p0(i64 8192, ptr nonnull %5) #5
  %6 = tail call i32 @llvm.smin.i32(i32 %1, i32 8192)
  %7 = icmp slt i32 %1, 1
  br i1 %7, label %UI_UTIL_read_pw.exit, label %8

8:                                                ; preds = %4
  %9 = tail call ptr @UI_new() #5
  %.not.i = icmp eq ptr %9, null
  br i1 %.not.i, label %UI_UTIL_read_pw.exit, label %10

10:                                               ; preds = %8
  %11 = add nsw i32 %6, -1
  %12 = tail call i32 @UI_add_input_string(ptr noundef nonnull %9, ptr noundef %2, i32 noundef 0, ptr noundef %0, i32 noundef 0, i32 noundef %11) #5
  %13 = icmp sgt i32 %12, -1
  %14 = icmp ne i32 %3, 0
  %or.cond.i = and i1 %14, %13
  br i1 %or.cond.i, label %15, label %17

15:                                               ; preds = %10
  %16 = call i32 @UI_add_verify_string(ptr noundef nonnull %9, ptr noundef %2, i32 noundef 0, ptr noundef nonnull %5, i32 noundef 0, i32 noundef %11, ptr noundef %0) #5
  br label %17

17:                                               ; preds = %15, %10
  %.1.i = phi i32 [ %16, %15 ], [ %12, %10 ]
  %18 = icmp sgt i32 %.1.i, -1
  br i1 %18, label %19, label %21

19:                                               ; preds = %17
  %20 = call i32 @UI_process(ptr noundef nonnull %9) #5
  br label %21

21:                                               ; preds = %19, %17
  %.2.i = phi i32 [ %20, %19 ], [ %.1.i, %17 ]
  call void @UI_free(ptr noundef nonnull %9) #5
  br label %UI_UTIL_read_pw.exit

UI_UTIL_read_pw.exit:                             ; preds = %4, %8, %21
  %.0.i = phi i32 [ -1, %4 ], [ %.2.i, %21 ], [ -2, %8 ]
  call void @OPENSSL_cleanse(ptr noundef nonnull %5, i64 noundef 8192) #5
  call void @llvm.lifetime.end.p0(i64 8192, ptr nonnull %5) #5
  ret i32 %.0.i
}